ccopy_reg
_reconstructor
p0
(cargparse
Namespace
p1
c__builtin__
object
p2
Ntp3
Rp4
(dp5
S'vers'
p6
S'phase3_woBLACKLIST_newQC'
p7
sS'gwf'
p8
S'/home/ijpal/.local/bin/gwf'
p9
sS'indlist'
p10
I00
sS'chunks'
p11
S'sample'
p12
sS'run_check'
p13
I01
sS'date'
p14
S'06072016'
p15
sS'genoprob'
p16
F0.0
sb.